#include <math.h>
#include <stdio.h>
#include <stdlib.h>
#include <string.h>

void main()
{
  int first=1,sum,n,k,i=2;
  scanf("%d %d",&n,&k);
  sum=first*n+k;
  while (i<=n)
  {
      if (sum%(n-1)!=0){i=2;first++;sum=first*n+k;continue;}
      sum=sum/(n-1)*n+k;
      i++;
  }
  printf("%d\n",sum);
}