; ModuleID = '54/417.c'
source_filename = "54/417.c"
target datalayout = "e-m:e-p270:32:32-p271:32:32-p272:64:64-i64:64-f80:128-n8:16:32:64-S128"
target triple = "x86_64-pc-linux-gnu"

@.str = private unnamed_addr constant [6 x i8] c"%d %d\00", align 1
@.str.1 = private unnamed_addr constant [4 x i8] c"%d\0A\00", align 1

; Function Attrs: noinline nounwind uwtable
define dso_local void @main() #0 {
  %1 = alloca i32, align 4
  %2 = alloca i32, align 4
  %3 = alloca i32, align 4
  %4 = alloca i32, align 4
  %5 = alloca i32, align 4
  store i32 1, i32* %1, align 4
  store i32 2, i32* %5, align 4
  %6 = call i32 (i8*, ...) @__isoc99_scanf(i8* getelementptr inbounds ([6 x i8], [6 x i8]* @.str, i64 0, i64 0), i32* %3, i32* %4)
  %7 = load i32, i32* %1, align 4
  %8 = load i32, i32* %3, align 4
  %9 = mul nsw i32 %7, %8
  %10 = load i32, i32* %4, align 4
  %11 = add nsw i32 %9, %10
  store i32 %11, i32* %2, align 4
  br label %12

12:                                               ; preds = %30, %22, %0
  %13 = load i32, i32* %5, align 4
  %14 = load i32, i32* %3, align 4
  %15 = icmp sle i32 %13, %14
  br i1 %15, label %16, label %41

16:                                               ; preds = %12
  %17 = load i32, i32* %2, align 4
  %18 = load i32, i32* %3, align 4
  %19 = sub nsw i32 %18, 1
  %20 = srem i32 %17, %19
  %21 = icmp ne i32 %20, 0
  br i1 %21, label %22, label %30

22:                                               ; preds = %16
  store i32 2, i32* %5, align 4
  %23 = load i32, i32* %1, align 4
  %24 = add nsw i32 %23, 1
  store i32 %24, i32* %1, align 4
  %25 = load i32, i32* %1, align 4
  %26 = load i32, i32* %3, align 4
  %27 = mul nsw i32 %25, %26
  %28 = load i32, i32* %4, align 4
  %29 = add nsw i32 %27, %28
  store i32 %29, i32* %2, align 4
  br label %12

30:                                               ; preds = %16
  %31 = load i32, i32* %2, align 4
  %32 = load i32, i32* %3, align 4
  %33 = sub nsw i32 %32, 1
  %34 = sdiv i32 %31, %33
  %35 = load i32, i32* %3, align 4
  %36 = mul nsw i32 %34, %35
  %37 = load i32, i32* %4, align 4
  %38 = add nsw i32 %36, %37
  store i32 %38, i32* %2, align 4
  %39 = load i32, i32* %5, align 4
  %40 = add nsw i32 %39, 1
  store i32 %40, i32* %5, align 4
  br label %12

41:                                               ; preds = %12
  %42 = load i32, i32* %2, align 4
  %43 = call i32 (i8*, ...) @printf(i8* getelementptr inbounds ([4 x i8], [4 x i8]* @.str.1, i64 0, i64 0), i32 %42)
  ret void
}

declare dso_local i32 @__isoc99_scanf(i8*, ...) #1

declare dso_local i32 @printf(i8*, ...) #1


!llvm.module.flags = !{!0}
!llvm.ident = !{!1}

!0 = !{i32 1, !"wchar_size", i32 4}
!1 = !{!"clang version 10.0.0-4ubuntu1 "}
